; Function Attrs: mustprogress uwtable
define void @_ZN3g2o7csparse7CSparse12freeSymbolicEv(ptr noundef nonnull readonly align 8 captures(none) dereferenceable(8) %0) local_unnamed_addr #0 align 2 {
  %2 = load ptr, ptr %0, align 8, !tbaa !14
  %3 = load ptr, ptr %2, align 8, !tbaa !52
  %.not = icmp eq ptr %3, null
  br i1 %.not, label %7, label %4

4:                                                ; preds = %1
  %5 = tail call ptr @cs_di_sfree(ptr noundef nonnull %3)
  %6 = load ptr, ptr %0, align 8, !tbaa !14
  store ptr null, ptr %6, align 8, !tbaa !52
  br label %7

7:                                                ; preds = %4, %1
  ret void
}